target datalayout = "e-m:e-p270:32:32-p271:32:32-p272:64:64-i64:64-i128:128-f80:128-n8:16:32:64-S128"
target triple = "x86_64-pc-linux-gnu"

@loadFileText = internal global ptr null, align 8
@.str.11 = private unnamed_addr constant [57 x i8] c"FILEIO: [%s] Failed to allocated memory for file reading\00", align 1
@.str.14 = private unnamed_addr constant [40 x i8] c"FILEIO: File name provided is not valid\00", align 1
@.str.33 = private unnamed_addr constant [3 x i8] c"rt\00", align 1
@.str.34 = private unnamed_addr constant [43 x i8] c"FILEIO: [%s] Text file loaded successfully\00", align 1
@.str.35 = private unnamed_addr constant [38 x i8] c"FILEIO: [%s] Failed to read text file\00", align 1
@.str.36 = private unnamed_addr constant [38 x i8] c"FILEIO: [%s] Failed to open text file\00", align 1

; Function Attrs: nounwind uwtable
define ptr @LoadFileText(ptr noundef %0) #0 {
  %2 = alloca ptr, align 8
  %3 = alloca ptr, align 8
  %4 = alloca ptr, align 8
  %5 = alloca i32, align 4
  %6 = alloca ptr, align 8
  %7 = alloca i32, align 4
  %8 = alloca i32, align 4
  store ptr %0, ptr %3, align 8
  call void @llvm.lifetime.start.p0(i64 8, ptr %4) #13
  store ptr null, ptr %4, align 8
  %9 = load ptr, ptr %3, align 8
  %10 = icmp ne ptr %9, null
  br i1 %10, label %11, label %75

11:                                               ; preds = %1
  %12 = load ptr, ptr @loadFileText, align 8
  %13 = icmp ne ptr %12, null
  br i1 %13, label %14, label %19

14:                                               ; preds = %11
  %15 = load ptr, ptr @loadFileText, align 8
  %16 = load ptr, ptr %3, align 8
  %17 = call ptr %15(ptr noundef %16)
  store ptr %17, ptr %4, align 8
  %18 = load ptr, ptr %4, align 8
  store ptr %18, ptr %2, align 8
  store i32 1, ptr %5, align 4
  br label %78

19:                                               ; preds = %11
  call void @llvm.lifetime.start.p0(i64 8, ptr %6) #13
  %20 = load ptr, ptr %3, align 8
  %21 = call noalias ptr @fopen(ptr noundef %20, ptr noundef @.str.33)
  store ptr %21, ptr %6, align 8
  %22 = load ptr, ptr %6, align 8
  %23 = icmp ne ptr %22, null
  br i1 %23, label %24, label %72

24:                                               ; preds = %19
  %25 = load ptr, ptr %6, align 8
  %26 = call i32 @fseek(ptr noundef %25, i64 noundef 0, i32 noundef 2)
  call void @llvm.lifetime.start.p0(i64 4, ptr %7) #13
  %27 = load ptr, ptr %6, align 8
  %28 = call i64 @ftell(ptr noundef %27)
  %29 = trunc i64 %28 to i32
  store i32 %29, ptr %7, align 4
  %30 = load ptr, ptr %6, align 8
  %31 = call i32 @fseek(ptr noundef %30, i64 noundef 0, i32 noundef 0)
  %32 = load i32, ptr %7, align 4
  %33 = icmp ugt i32 %32, 0
  br i1 %33, label %34, label %67

34:                                               ; preds = %24
  %35 = load i32, ptr %7, align 4
  %36 = add i32 %35, 1
  %37 = zext i32 %36 to i64
  %38 = mul i64 %37, 1
  %39 = call noalias ptr @malloc(i64 noundef %38) #18
  store ptr %39, ptr %4, align 8
  %40 = load ptr, ptr %4, align 8
  %41 = icmp ne ptr %40, null
  br i1 %41, label %42, label %64

42:                                               ; preds = %34
  call void @llvm.lifetime.start.p0(i64 4, ptr %8) #13
  %43 = load ptr, ptr %4, align 8
  %44 = load i32, ptr %7, align 4
  %45 = zext i32 %44 to i64
  %46 = load ptr, ptr %6, align 8
  %47 = call i64 @fread(ptr noundef %43, i64 noundef 1, i64 noundef %45, ptr noundef %46)
  %48 = trunc i64 %47 to i32
  store i32 %48, ptr %8, align 4
  %49 = load i32, ptr %8, align 4
  %50 = load i32, ptr %7, align 4
  %51 = icmp ult i32 %49, %50
  br i1 %51, label %52, label %58

52:                                               ; preds = %42
  %53 = load ptr, ptr %4, align 8
  %54 = load i32, ptr %8, align 4
  %55 = add i32 %54, 1
  %56 = zext i32 %55 to i64
  %57 = call ptr @realloc(ptr noundef %53, i64 noundef %56) #17
  store ptr %57, ptr %4, align 8
  br label %58

58:                                               ; preds = %52, %42
  %59 = load ptr, ptr %4, align 8
  %60 = load i32, ptr %8, align 4
  %61 = zext i32 %60 to i64
  %62 = getelementptr inbounds nuw i8, ptr %59, i64 %61
  store i8 0, ptr %62, align 1
  %63 = load ptr, ptr %3, align 8
  call void (i32, ptr, ...) @TraceLog(i32 noundef 3, ptr noundef @.str.34, ptr noundef %63)
  call void @llvm.lifetime.end.p0(i64 4, ptr %8) #13
  br label %66

64:                                               ; preds = %34
  %65 = load ptr, ptr %3, align 8
  call void (i32, ptr, ...) @TraceLog(i32 noundef 4, ptr noundef @.str.11, ptr noundef %65)
  br label %66

66:                                               ; preds = %64, %58
  br label %69

67:                                               ; preds = %24
  %68 = load ptr, ptr %3, align 8
  call void (i32, ptr, ...) @TraceLog(i32 noundef 4, ptr noundef @.str.35, ptr noundef %68)
  br label %69

69:                                               ; preds = %67, %66
  %70 = load ptr, ptr %6, align 8
  %71 = call i32 @fclose(ptr noundef %70)
  call void @llvm.lifetime.end.p0(i64 4, ptr %7) #13
  br label %74

72:                                               ; preds = %19
  %73 = load ptr, ptr %3, align 8
  call void (i32, ptr, ...) @TraceLog(i32 noundef 4, ptr noundef @.str.36, ptr noundef %73)
  br label %74

74:                                               ; preds = %72, %69
  call void @llvm.lifetime.end.p0(i64 8, ptr %6) #13
  br label %76

75:                                               ; preds = %1
  call void (i32, ptr, ...) @TraceLog(i32 noundef 4, ptr noundef @.str.14)
  br label %76

76:                                               ; preds = %75, %74
  %77 = load ptr, ptr %4, align 8
  store ptr %77, ptr %2, align 8
  store i32 1, ptr %5, align 4
  br label %78

78:                                               ; preds = %76, %14
  call void @llvm.lifetime.end.p0(i64 8, ptr %4) #13
  %79 = load ptr, ptr %2, align 8
  ret ptr %79
}