; Function Attrs: nounwind uwtable
define ptr @LoadFileText(ptr noundef %0) local_unnamed_addr #1 {
  %.not = icmp eq ptr %0, null
  br i1 %.not, label %34, label %2

2:                                                ; preds = %1
  %3 = load ptr, ptr @loadFileText, align 8
  %.not34 = icmp eq ptr %3, null
  br i1 %.not34, label %6, label %4

4:                                                ; preds = %2
  %5 = tail call ptr %3(ptr noundef nonnull %0) #18
  br label %35

6:                                                ; preds = %2
  %7 = tail call noalias ptr @fopen(ptr noundef nonnull %0, ptr noundef nonnull @.str.33)
  %.not35 = icmp eq ptr %7, null
  br i1 %.not35, label %33, label %8

8:                                                ; preds = %6
  %9 = tail call i32 @fseek(ptr noundef nonnull %7, i64 noundef 0, i32 noundef 2)
  %10 = tail call i64 @ftell(ptr noundef nonnull %7)
  %11 = trunc i64 %10 to i32
  %12 = tail call i32 @fseek(ptr noundef nonnull %7, i64 noundef 0, i32 noundef 0)
  %.not36 = icmp eq i32 %11, 0
  br i1 %.not36, label %30, label %13

13:                                               ; preds = %8
  %14 = add i64 %10, 1
  %15 = and i64 %14, 4294967295
  %16 = tail call noalias ptr @malloc(i64 noundef %15) #23
  %.not37 = icmp eq ptr %16, null
  br i1 %.not37, label %29, label %17

17:                                               ; preds = %13
  %18 = and i64 %10, 4294967295
  %19 = tail call i64 @fread(ptr noundef nonnull %16, i64 noundef 1, i64 noundef %18, ptr noundef nonnull %7)
  %20 = trunc i64 %19 to i32
  %21 = icmp ult i32 %20, %11
  br i1 %21, label %22, label %26

22:                                               ; preds = %17
  %23 = add i64 %19, 1
  %24 = and i64 %23, 4294967295
  %25 = tail call ptr @realloc(ptr noundef nonnull %16, i64 noundef %24) #22
  br label %26

26:                                               ; preds = %22, %17
  %.026 = phi ptr [ %25, %22 ], [ %16, %17 ]
  %27 = and i64 %19, 4294967295
  %28 = getelementptr inbounds nuw i8, ptr %.026, i64 %27
  store i8 0, ptr %28, align 1
  tail call void (i32, ptr, ...) @TraceLog(i32 noundef 3, ptr noundef nonnull @.str.34, ptr noundef nonnull %0)
  br label %31

29:                                               ; preds = %13
  tail call void (i32, ptr, ...) @TraceLog(i32 noundef 4, ptr noundef nonnull @.str.11, ptr noundef nonnull %0)
  br label %31

30:                                               ; preds = %8
  tail call void (i32, ptr, ...) @TraceLog(i32 noundef 4, ptr noundef nonnull @.str.35, ptr noundef nonnull %0)
  br label %31

31:                                               ; preds = %26, %29, %30
  %.1 = phi ptr [ %.026, %26 ], [ null, %29 ], [ null, %30 ]
  %32 = tail call i32 @fclose(ptr noundef nonnull %7)
  br label %35

33:                                               ; preds = %6
  tail call void (i32, ptr, ...) @TraceLog(i32 noundef 4, ptr noundef nonnull @.str.36, ptr noundef nonnull %0)
  br label %35

34:                                               ; preds = %1
  tail call void (i32, ptr, ...) @TraceLog(i32 noundef 4, ptr noundef nonnull @.str.14)
  br label %35

35:                                               ; preds = %34, %33, %31, %4
  %.0 = phi ptr [ %5, %4 ], [ null, %34 ], [ %.1, %31 ], [ null, %33 ]
  ret ptr %.0
}